target datalayout = "e-m:e-p270:32:32-p271:32:32-p272:64:64-i64:64-i128:128-f80:128-n8:16:32:64-S128"
target triple = "x86_64-pc-linux-gnu"

%struct._zval_struct = type { %union._zend_value, %union.anon, %union.anon.2 }
%union._zend_value = type { i64 }
%union.anon = type { i32 }
%union.anon.2 = type { i32 }
%struct._zend_array = type { %struct._zend_refcounted_h, %union.anon.4, i32, %union.anon.6, i32, i32, i32, i32, i64, ptr }
%struct._zend_refcounted_h = type { i32, %union.anon.3 }
%union.anon.3 = type { i32 }
%union.anon.4 = type { i32 }
%union.anon.6 = type { ptr }
%struct._zend_class_entry = type { i8, ptr, %union.anon.8, i32, i32, i32, i32, ptr, ptr, ptr, %struct._zend_array, %struct._zend_array, %struct._zend_array, ptr, ptr, ptr, ptr, ptr, ptr, ptr, ptr, ptr, ptr, ptr, ptr, ptr, ptr, ptr, ptr, ptr, ptr, ptr, %union.anon.9, ptr, ptr, ptr, ptr, i32, i32, %union.anon.10, ptr, ptr, ptr, ptr, i32, ptr, ptr, %union.anon.11 }
%union.anon.8 = type { ptr }
%union.anon.9 = type { ptr }
%union.anon.10 = type { ptr }
%union.anon.11 = type { %struct.anon.12 }
%struct.anon.12 = type { ptr, i32, i32 }
%struct._zend_object = type { %struct._zend_refcounted_h, i32, ptr, ptr, ptr, [1 x %struct._zval_struct] }

@zend_known_strings = external global ptr, align 8
@zend_ce_exception = global ptr null, align 8
@zend_ce_error = global ptr null, align 8
@zend_ce_unwind_exit = internal global %struct._zend_class_entry zeroinitializer, align 8
@zend_ce_graceful_exit = internal global %struct._zend_class_entry zeroinitializer, align 8

; Function Attrs: nounwind uwtable
define internal ptr @i_get_exception_base(ptr noundef %0) #0 {
  %2 = alloca ptr, align 8
  %3 = alloca ptr, align 8
  %4 = alloca ptr, align 8
  store ptr %0, ptr %4, align 8
  %5 = load ptr, ptr %4, align 8
  %6 = getelementptr inbounds %struct._zend_object, ptr %5, i32 0, i32 2
  %7 = load ptr, ptr %6, align 8
  %8 = load ptr, ptr @zend_ce_exception, align 8
  store ptr %7, ptr %2, align 8
  store ptr %8, ptr %3, align 8
  %9 = load ptr, ptr %2, align 8
  %10 = load ptr, ptr %3, align 8
  %11 = icmp eq ptr %9, %10
  br i1 %11, label %16, label %12

12:                                               ; preds = %1
  %13 = load ptr, ptr %2, align 8
  %14 = load ptr, ptr %3, align 8
  %15 = call zeroext i1 @instanceof_function_slow(ptr noundef %13, ptr noundef %14) #12
  br label %16

16:                                               ; preds = %12, %1
  %17 = phi i1 [ true, %1 ], [ %15, %12 ]
  br i1 %17, label %18, label %20

18:                                               ; preds = %16
  %19 = load ptr, ptr @zend_ce_exception, align 8
  br label %22

20:                                               ; preds = %16
  %21 = load ptr, ptr @zend_ce_error, align 8
  br label %22

22:                                               ; preds = %20, %18
  %23 = phi ptr [ %19, %18 ], [ %21, %20 ]
  ret ptr %23
}

; Function Attrs: nounwind uwtable
define zeroext i1 @zend_is_graceful_exit(ptr noundef %0) #0 {
  %2 = alloca ptr, align 8
  store ptr %0, ptr %2, align 8
  %3 = load ptr, ptr %2, align 8
  %4 = getelementptr inbounds %struct._zend_object, ptr %3, i32 0, i32 2
  %5 = load ptr, ptr %4, align 8
  %6 = icmp eq ptr %5, @zend_ce_graceful_exit
  ret i1 %6
}

; Function Attrs: nounwind uwtable
define zeroext i1 @zend_is_unwind_exit(ptr noundef %0) #0 {
  %2 = alloca ptr, align 8
  store ptr %0, ptr %2, align 8
  %3 = load ptr, ptr %2, align 8
  %4 = getelementptr inbounds %struct._zend_object, ptr %3, i32 0, i32 2
  %5 = load ptr, ptr %4, align 8
  %6 = icmp eq ptr %5, @zend_ce_unwind_exit
  ret i1 %6
}

; Function Attrs: nounwind uwtable
define void @zend_exception_set_previous(ptr noundef %0, ptr noundef %1) #0 {
  %3 = alloca ptr, align 8
  %4 = alloca ptr, align 8
  %5 = alloca ptr, align 8
  %6 = alloca ptr, align 8
  %7 = alloca ptr, align 8
  %8 = alloca ptr, align 8
  %9 = alloca ptr, align 8
  %10 = alloca ptr, align 8
  %11 = alloca ptr, align 8
  %12 = alloca ptr, align 8
  %13 = alloca ptr, align 8
  %14 = alloca ptr, align 8
  %15 = alloca %struct._zval_struct, align 8
  %16 = alloca %struct._zval_struct, align 8
  %17 = alloca %struct._zval_struct, align 8
  %18 = alloca ptr, align 8
  %19 = alloca ptr, align 8
  %20 = alloca ptr, align 8
  store ptr %0, ptr %10, align 8
  store ptr %1, ptr %11, align 8
  %21 = load ptr, ptr %10, align 8
  %22 = icmp ne ptr %21, null
  br i1 %22, label %23, label %26

23:                                               ; preds = %2
  %24 = load ptr, ptr %11, align 8
  %25 = icmp ne ptr %24, null
  br i1 %25, label %27, label %26

26:                                               ; preds = %23, %2
  br label %174

27:                                               ; preds = %23
  %28 = load ptr, ptr %10, align 8
  %29 = load ptr, ptr %11, align 8
  %30 = icmp eq ptr %28, %29
  br i1 %30, label %37, label %31

31:                                               ; preds = %27
  %32 = load ptr, ptr %11, align 8
  %33 = call zeroext i1 @zend_is_unwind_exit(ptr noundef %32)
  br i1 %33, label %37, label %34

34:                                               ; preds = %31
  %35 = load ptr, ptr %11, align 8
  %36 = call zeroext i1 @zend_is_graceful_exit(ptr noundef %35)
  br i1 %36, label %37, label %59

37:                                               ; preds = %34, %31, %27
  %38 = load ptr, ptr %11, align 8
  store ptr %38, ptr %8, align 8
  %39 = load ptr, ptr %8, align 8
  store ptr %39, ptr %5, align 8
  %40 = load ptr, ptr %5, align 8
  %41 = load i32, ptr %40, align 4
  %42 = icmp ugt i32 %41, 0
  call void @llvm.assume(i1 %42)
  %43 = load ptr, ptr %5, align 8
  %44 = load i32, ptr %43, align 4
  %45 = add i32 %44, -1
  store i32 %45, ptr %43, align 4
  %46 = icmp eq i32 %45, 0
  br i1 %46, label %47, label %49

47:                                               ; preds = %37
  %48 = load ptr, ptr %8, align 8
  call void @zend_objects_store_del(ptr noundef %48) #12
  br label %58

49:                                               ; preds = %37
  %50 = load ptr, ptr %8, align 8
  %51 = getelementptr inbounds %struct._zend_refcounted_h, ptr %50, i32 0, i32 1
  %52 = load i32, ptr %51, align 4
  %53 = and i32 %52, -1008
  %54 = icmp eq i32 %53, 0
  br i1 %54, label %55, label %57

55:                                               ; preds = %49
  %56 = load ptr, ptr %8, align 8
  call void @gc_possible_root(ptr noundef %56) #12
  br label %57

57:                                               ; preds = %55, %49
  br label %58

58:                                               ; preds = %57, %47
  br label %174

59:                                               ; preds = %34
  br label %60

60:                                               ; preds = %59
  store ptr %15, ptr %19, align 8
  %61 = load ptr, ptr %11, align 8
  %62 = load ptr, ptr %19, align 8
  %63 = getelementptr inbounds %struct._zval_struct, ptr %62, i32 0, i32 0
  store ptr %61, ptr %63, align 8
  %64 = load ptr, ptr %19, align 8
  %65 = getelementptr inbounds %struct._zval_struct, ptr %64, i32 0, i32 1
  store i32 776, ptr %65, align 8
  br label %66

66:                                               ; preds = %60
  br label %67

67:                                               ; preds = %66
  store ptr %16, ptr %20, align 8
  %68 = load ptr, ptr %10, align 8
  %69 = load ptr, ptr %20, align 8
  %70 = getelementptr inbounds %struct._zval_struct, ptr %69, i32 0, i32 0
  store ptr %68, ptr %70, align 8
  %71 = load ptr, ptr %20, align 8
  %72 = getelementptr inbounds %struct._zval_struct, ptr %71, i32 0, i32 1
  store i32 776, ptr %72, align 8
  br label %73

73:                                               ; preds = %67
  store ptr %16, ptr %14, align 8
  br label %74

74:                                               ; preds = %168, %73
  %75 = load ptr, ptr %11, align 8
  %76 = call ptr @i_get_exception_base(ptr noundef %75)
  %77 = load ptr, ptr %11, align 8
  %78 = load ptr, ptr @zend_known_strings, align 8
  %79 = getelementptr inbounds ptr, ptr %78, i64 23
  %80 = load ptr, ptr %79, align 8
  %81 = call ptr @zend_read_property_ex(ptr noundef %76, ptr noundef %77, ptr noundef %80, i1 noundef zeroext true, ptr noundef %17)
  store ptr %81, ptr %13, align 8
  br label %82

82:                                               ; preds = %119, %74
  %83 = load ptr, ptr %13, align 8
  store ptr %83, ptr %6, align 8
  %84 = load ptr, ptr %6, align 8
  %85 = getelementptr inbounds %struct._zval_struct, ptr %84, i32 0, i32 1
  %86 = load i8, ptr %85, align 8
  %87 = zext i8 %86 to i32
  %88 = icmp eq i32 %87, 8
  br i1 %88, label %89, label %131

89:                                               ; preds = %82
  %90 = load ptr, ptr %13, align 8
  %91 = getelementptr inbounds %struct._zval_struct, ptr %90, i32 0, i32 0
  %92 = load ptr, ptr %91, align 8
  %93 = load ptr, ptr %14, align 8
  %94 = getelementptr inbounds %struct._zval_struct, ptr %93, i32 0, i32 0
  %95 = load ptr, ptr %94, align 8
  %96 = icmp eq ptr %92, %95
  br i1 %96, label %97, label %119

97:                                               ; preds = %89
  %98 = load ptr, ptr %11, align 8
  store ptr %98, ptr %9, align 8
  %99 = load ptr, ptr %9, align 8
  store ptr %99, ptr %4, align 8
  %100 = load ptr, ptr %4, align 8
  %101 = load i32, ptr %100, align 4
  %102 = icmp ugt i32 %101, 0
  call void @llvm.assume(i1 %102)
  %103 = load ptr, ptr %4, align 8
  %104 = load i32, ptr %103, align 4
  %105 = add i32 %104, -1
  store i32 %105, ptr %103, align 4
  %106 = icmp eq i32 %105, 0
  br i1 %106, label %107, label %109

107:                                              ; preds = %97
  %108 = load ptr, ptr %9, align 8
  call void @zend_objects_store_del(ptr noundef %108) #12
  br label %118

109:                                              ; preds = %97
  %110 = load ptr, ptr %9, align 8
  %111 = getelementptr inbounds %struct._zend_refcounted_h, ptr %110, i32 0, i32 1
  %112 = load i32, ptr %111, align 4
  %113 = and i32 %112, -1008
  %114 = icmp eq i32 %113, 0
  br i1 %114, label %115, label %117

115:                                              ; preds = %109
  %116 = load ptr, ptr %9, align 8
  call void @gc_possible_root(ptr noundef %116) #12
  br label %117

117:                                              ; preds = %115, %109
  br label %118

118:                                              ; preds = %117, %107
  br label %174

119:                                              ; preds = %89
  %120 = load ptr, ptr %13, align 8
  %121 = getelementptr inbounds %struct._zval_struct, ptr %120, i32 0, i32 0
  %122 = load ptr, ptr %121, align 8
  %123 = call ptr @i_get_exception_base(ptr noundef %122)
  %124 = load ptr, ptr %13, align 8
  %125 = getelementptr inbounds %struct._zval_struct, ptr %124, i32 0, i32 0
  %126 = load ptr, ptr %125, align 8
  %127 = load ptr, ptr @zend_known_strings, align 8
  %128 = getelementptr inbounds ptr, ptr %127, i64 23
  %129 = load ptr, ptr %128, align 8
  %130 = call ptr @zend_read_property_ex(ptr noundef %123, ptr noundef %126, ptr noundef %129, i1 noundef zeroext true, ptr noundef %17)
  store ptr %130, ptr %13, align 8
  br label %82

131:                                              ; preds = %82
  %132 = load ptr, ptr %14, align 8
  %133 = getelementptr inbounds %struct._zval_struct, ptr %132, i32 0, i32 0
  %134 = load ptr, ptr %133, align 8
  %135 = call ptr @i_get_exception_base(ptr noundef %134)
  store ptr %135, ptr %18, align 8
  %136 = load ptr, ptr %18, align 8
  %137 = load ptr, ptr %14, align 8
  %138 = getelementptr inbounds %struct._zval_struct, ptr %137, i32 0, i32 0
  %139 = load ptr, ptr %138, align 8
  %140 = load ptr, ptr @zend_known_strings, align 8
  %141 = getelementptr inbounds ptr, ptr %140, i64 23
  %142 = load ptr, ptr %141, align 8
  %143 = call ptr @zend_read_property_ex(ptr noundef %136, ptr noundef %139, ptr noundef %142, i1 noundef zeroext true, ptr noundef %17)
  store ptr %143, ptr %12, align 8
  %144 = load ptr, ptr %12, align 8
  store ptr %144, ptr %7, align 8
  %145 = load ptr, ptr %7, align 8
  %146 = getelementptr inbounds %struct._zval_struct, ptr %145, i32 0, i32 1
  %147 = load i8, ptr %146, align 8
  %148 = zext i8 %147 to i32
  %149 = icmp eq i32 %148, 1
  br i1 %149, label %150, label %166

150:                                              ; preds = %131
  %151 = load ptr, ptr %18, align 8
  %152 = load ptr, ptr %14, align 8
  %153 = getelementptr inbounds %struct._zval_struct, ptr %152, i32 0, i32 0
  %154 = load ptr, ptr %153, align 8
  %155 = load ptr, ptr @zend_known_strings, align 8
  %156 = getelementptr inbounds ptr, ptr %155, i64 23
  %157 = load ptr, ptr %156, align 8
  call void @zend_update_property_ex(ptr noundef %151, ptr noundef %154, ptr noundef %157, ptr noundef %15)
  %158 = load ptr, ptr %11, align 8
  %159 = getelementptr inbounds %struct._zend_object, ptr %158, i32 0, i32 0
  store ptr %159, ptr %3, align 8
  %160 = load ptr, ptr %3, align 8
  %161 = load i32, ptr %160, align 4
  %162 = icmp ugt i32 %161, 0
  call void @llvm.assume(i1 %162)
  %163 = load ptr, ptr %3, align 8
  %164 = load i32, ptr %163, align 4
  %165 = add i32 %164, -1
  store i32 %165, ptr %163, align 4
  br label %174

166:                                              ; preds = %131
  %167 = load ptr, ptr %12, align 8
  store ptr %167, ptr %14, align 8
  br label %168

168:                                              ; preds = %166
  %169 = load ptr, ptr %14, align 8
  %170 = getelementptr inbounds %struct._zval_struct, ptr %169, i32 0, i32 0
  %171 = load ptr, ptr %170, align 8
  %172 = load ptr, ptr %11, align 8
  %173 = icmp ne ptr %171, %172
  br i1 %173, label %74, label %174

174:                                              ; preds = %168, %150, %118, %58, %26
  ret void
}