; Function Attrs: nounwind uwtable
define void @zend_exception_set_previous(ptr noundef %0, ptr noundef %1) local_unnamed_addr #0 {
  %3 = alloca %struct._zval_struct, align 8
  %.sroa.0 = alloca i64, align 8
  %4 = alloca %struct._zval_struct, align 8
  %5 = icmp ne ptr %0, null
  %6 = icmp ne ptr %1, null
  %or.cond = and i1 %5, %6
  br i1 %or.cond, label %7, label %.loopexit

7:                                                ; preds = %2
  %8 = icmp eq ptr %0, %1
  br i1 %8, label %14, label %9

9:                                                ; preds = %7
  %10 = getelementptr inbounds i8, ptr %1, i64 16
  %11 = load ptr, ptr %10, align 8
  %12 = icmp eq ptr %11, @zend_ce_unwind_exit
  %13 = icmp eq ptr %11, @zend_ce_graceful_exit
  %or.cond62 = or i1 %12, %13
  br i1 %or.cond62, label %14, label %26

14:                                               ; preds = %9, %7
  %15 = load i32, ptr %1, align 4
  %16 = icmp ne i32 %15, 0
  tail call void @llvm.assume(i1 %16)
  %17 = add i32 %15, -1
  store i32 %17, ptr %1, align 4
  %18 = icmp eq i32 %17, 0
  br i1 %18, label %19, label %20

19:                                               ; preds = %14
  tail call void @zend_objects_store_del(ptr noundef nonnull %1) #15
  br label %.loopexit

20:                                               ; preds = %14
  %21 = getelementptr inbounds i8, ptr %1, i64 4
  %22 = load i32, ptr %21, align 4
  %23 = and i32 %22, -1008
  %24 = icmp eq i32 %23, 0
  br i1 %24, label %25, label %.loopexit

25:                                               ; preds = %20
  tail call void @gc_possible_root(ptr noundef nonnull %1) #15
  br label %.loopexit

26:                                               ; preds = %9
  store ptr %1, ptr %3, align 8
  %27 = getelementptr inbounds i8, ptr %3, i64 8
  store i32 776, ptr %27, align 8
  %28 = ptrtoint ptr %0 to i64
  store i64 %28, ptr %.sroa.0, align 8
  br label %29

29:                                               ; preds = %95, %26
  %.048 = phi ptr [ %.sroa.0, %26 ], [ %83, %95 ]
  %.val53 = load ptr, ptr %10, align 8
  %30 = load ptr, ptr @zend_ce_exception, align 8
  %31 = icmp eq ptr %30, %.val53
  br i1 %31, label %i_get_exception_base.exit, label %32

32:                                               ; preds = %29
  %33 = call zeroext i1 @instanceof_function_slow(ptr noundef %.val53, ptr noundef %30) #15
  %zend_ce_exception.val.i = load ptr, ptr @zend_ce_exception, align 8
  %zend_ce_error.val.i = load ptr, ptr @zend_ce_error, align 8
  %.pre.i = select i1 %33, ptr %zend_ce_exception.val.i, ptr %zend_ce_error.val.i
  br label %i_get_exception_base.exit

i_get_exception_base.exit:                        ; preds = %29, %32
  %34 = phi ptr [ %.val53, %29 ], [ %.pre.i, %32 ]
  %35 = load ptr, ptr @zend_known_strings, align 8
  %36 = getelementptr inbounds i8, ptr %35, i64 184
  %37 = load ptr, ptr %36, align 8
  %38 = call ptr @zend_read_property_ex(ptr noundef %34, ptr noundef nonnull %1, ptr noundef %37, i1 noundef zeroext true, ptr noundef nonnull %4) #15
  %39 = getelementptr inbounds i8, ptr %38, i64 8
  %40 = load i8, ptr %39, align 8
  %41 = icmp eq i8 %40, 8
  br i1 %41, label %.lr.ph, label %._crit_edge

.lr.ph:                                           ; preds = %i_get_exception_base.exit, %i_get_exception_base.exit57
  %.066 = phi ptr [ %68, %i_get_exception_base.exit57 ], [ %38, %i_get_exception_base.exit ]
  %42 = load ptr, ptr %.066, align 8
  %43 = load ptr, ptr %.048, align 8
  %44 = icmp eq ptr %42, %43
  br i1 %44, label %45, label %57

45:                                               ; preds = %.lr.ph
  %46 = load i32, ptr %1, align 4
  %47 = icmp ne i32 %46, 0
  call void @llvm.assume(i1 %47)
  %48 = add i32 %46, -1
  store i32 %48, ptr %1, align 4
  %49 = icmp eq i32 %48, 0
  br i1 %49, label %50, label %51

50:                                               ; preds = %45
  call void @zend_objects_store_del(ptr noundef nonnull %1) #15
  br label %.loopexit

51:                                               ; preds = %45
  %52 = getelementptr inbounds i8, ptr %1, i64 4
  %53 = load i32, ptr %52, align 4
  %54 = and i32 %53, -1008
  %55 = icmp eq i32 %54, 0
  br i1 %55, label %56, label %.loopexit

56:                                               ; preds = %51
  call void @gc_possible_root(ptr noundef nonnull %1) #15
  br label %.loopexit

57:                                               ; preds = %.lr.ph
  %58 = getelementptr i8, ptr %42, i64 16
  %.val52 = load ptr, ptr %58, align 8
  %59 = load ptr, ptr @zend_ce_exception, align 8
  %60 = icmp eq ptr %59, %.val52
  br i1 %60, label %i_get_exception_base.exit57, label %61

61:                                               ; preds = %57
  %62 = call zeroext i1 @instanceof_function_slow(ptr noundef %.val52, ptr noundef %59) #15
  %zend_ce_exception.val.i54 = load ptr, ptr @zend_ce_exception, align 8
  %zend_ce_error.val.i55 = load ptr, ptr @zend_ce_error, align 8
  %.pre.i56 = select i1 %62, ptr %zend_ce_exception.val.i54, ptr %zend_ce_error.val.i55
  %.pre = load ptr, ptr %.066, align 8
  br label %i_get_exception_base.exit57

i_get_exception_base.exit57:                      ; preds = %57, %61
  %63 = phi ptr [ %42, %57 ], [ %.pre, %61 ]
  %64 = phi ptr [ %.val52, %57 ], [ %.pre.i56, %61 ]
  %65 = load ptr, ptr @zend_known_strings, align 8
  %66 = getelementptr inbounds i8, ptr %65, i64 184
  %67 = load ptr, ptr %66, align 8
  %68 = call ptr @zend_read_property_ex(ptr noundef %64, ptr noundef %63, ptr noundef %67, i1 noundef zeroext true, ptr noundef nonnull %4) #15
  %69 = getelementptr inbounds i8, ptr %68, i64 8
  %70 = load i8, ptr %69, align 8
  %71 = icmp eq i8 %70, 8
  br i1 %71, label %.lr.ph, label %._crit_edge

._crit_edge:                                      ; preds = %i_get_exception_base.exit57, %i_get_exception_base.exit
  %72 = load ptr, ptr %.048, align 8
  %73 = getelementptr i8, ptr %72, i64 16
  %.val = load ptr, ptr %73, align 8
  %74 = load ptr, ptr @zend_ce_exception, align 8
  %75 = icmp eq ptr %74, %.val
  br i1 %75, label %i_get_exception_base.exit61, label %76

76:                                               ; preds = %._crit_edge
  %77 = call zeroext i1 @instanceof_function_slow(ptr noundef %.val, ptr noundef %74) #15
  %zend_ce_exception.val.i58 = load ptr, ptr @zend_ce_exception, align 8
  %zend_ce_error.val.i59 = load ptr, ptr @zend_ce_error, align 8
  %.pre.i60 = select i1 %77, ptr %zend_ce_exception.val.i58, ptr %zend_ce_error.val.i59
  %.pre70 = load ptr, ptr %.048, align 8
  br label %i_get_exception_base.exit61

i_get_exception_base.exit61:                      ; preds = %._crit_edge, %76
  %78 = phi ptr [ %72, %._crit_edge ], [ %.pre70, %76 ]
  %79 = phi ptr [ %.val, %._crit_edge ], [ %.pre.i60, %76 ]
  %80 = load ptr, ptr @zend_known_strings, align 8
  %81 = getelementptr inbounds i8, ptr %80, i64 184
  %82 = load ptr, ptr %81, align 8
  %83 = call ptr @zend_read_property_ex(ptr noundef %79, ptr noundef %78, ptr noundef %82, i1 noundef zeroext true, ptr noundef nonnull %4) #15
  %84 = getelementptr inbounds i8, ptr %83, i64 8
  %85 = load i8, ptr %84, align 8
  %86 = icmp eq i8 %85, 1
  br i1 %86, label %87, label %95

87:                                               ; preds = %i_get_exception_base.exit61
  %88 = load ptr, ptr %.048, align 8
  %89 = load ptr, ptr @zend_known_strings, align 8
  %90 = getelementptr inbounds i8, ptr %89, i64 184
  %91 = load ptr, ptr %90, align 8
  call void @zend_update_property_ex(ptr noundef %79, ptr noundef %88, ptr noundef %91, ptr noundef nonnull %3) #15
  %92 = load i32, ptr %1, align 4
  %93 = icmp ne i32 %92, 0
  call void @llvm.assume(i1 %93)
  %94 = add i32 %92, -1
  store i32 %94, ptr %1, align 4
  br label %.loopexit

95:                                               ; preds = %i_get_exception_base.exit61
  %96 = load ptr, ptr %83, align 8
  %.not = icmp eq ptr %96, %1
  br i1 %.not, label %.loopexit, label %29

.loopexit:                                        ; preds = %95, %50, %56, %51, %19, %25, %20, %2, %87
  ret void
}